target datalayout = "e-m:e-p270:32:32-p271:32:32-p272:64:64-i64:64-i128:128-f80:128-n8:16:32:64-S128"
target triple = "x86_64-pc-linux-gnu"

%struct.archive_read = type { %struct.archive, ptr, i32, i64, i64, %struct.archive_read_client, [16 x %struct.archive_read_filter_bidder], ptr, i32, i64, i32, i32, [16 x %struct.archive_format_descriptor], ptr, ptr, ptr, %struct.anon }
%struct.archive = type { i32, i32, ptr, i32, ptr, i32, i32, ptr, %struct.archive_string, ptr, i32, i32, ptr, ptr, i64, i64, i64, i8, i64 }
%struct.archive_string = type { ptr, i64, i64 }
%struct.archive_read_client = type { ptr, ptr, ptr, ptr, ptr, ptr, i32, i32, i64, ptr }
%struct.archive_read_filter_bidder = type { ptr, ptr, ptr }
%struct.archive_format_descriptor = type { ptr, ptr, ptr, ptr, ptr, ptr, ptr, ptr, ptr, ptr, ptr }
%struct.anon = type { ptr, ptr, i32, ptr, ptr }
%struct.cpio = type { i32, ptr, ptr, i64, i64, i64, i64, ptr, ptr, i32, i32 }
%struct.links_entry = type { ptr, ptr, i32, i64, i64, ptr }

; Function Attrs: nounwind uwtable
define internal i32 @archive_read_format_cpio_cleanup(ptr noundef %0) #0 {
  %2 = alloca ptr, align 8
  %3 = alloca ptr, align 8
  %4 = alloca ptr, align 8
  store ptr %0, ptr %2, align 8, !tbaa !9
  call void @llvm.lifetime.start.p0(i64 8, ptr %3) #8
  %5 = load ptr, ptr %2, align 8, !tbaa !9
  %6 = getelementptr inbounds nuw %struct.archive_read, ptr %5, i32 0, i32 13
  %7 = load ptr, ptr %6, align 8, !tbaa !20
  %8 = getelementptr inbounds nuw %struct.archive_format_descriptor, ptr %7, i32 0, i32 0
  %9 = load ptr, ptr %8, align 8, !tbaa !35
  store ptr %9, ptr %3, align 8, !tbaa !13
  br label %10

10:                                               ; preds = %15, %1
  %11 = load ptr, ptr %3, align 8, !tbaa !13
  %12 = getelementptr inbounds nuw %struct.cpio, ptr %11, i32 0, i32 2
  %13 = load ptr, ptr %12, align 8, !tbaa !54
  %14 = icmp ne ptr %13, null
  br i1 %14, label %15, label %32

15:                                               ; preds = %10
  call void @llvm.lifetime.start.p0(i64 8, ptr %4) #8
  %16 = load ptr, ptr %3, align 8, !tbaa !13
  %17 = getelementptr inbounds nuw %struct.cpio, ptr %16, i32 0, i32 2
  %18 = load ptr, ptr %17, align 8, !tbaa !54
  %19 = getelementptr inbounds nuw %struct.links_entry, ptr %18, i32 0, i32 0
  %20 = load ptr, ptr %19, align 8, !tbaa !55
  store ptr %20, ptr %4, align 8, !tbaa !57
  %21 = load ptr, ptr %3, align 8, !tbaa !13
  %22 = getelementptr inbounds nuw %struct.cpio, ptr %21, i32 0, i32 2
  %23 = load ptr, ptr %22, align 8, !tbaa !54
  %24 = getelementptr inbounds nuw %struct.links_entry, ptr %23, i32 0, i32 5
  %25 = load ptr, ptr %24, align 8, !tbaa !58
  call void @free(ptr noundef %25) #8
  %26 = load ptr, ptr %3, align 8, !tbaa !13
  %27 = getelementptr inbounds nuw %struct.cpio, ptr %26, i32 0, i32 2
  %28 = load ptr, ptr %27, align 8, !tbaa !54
  call void @free(ptr noundef %28) #8
  %29 = load ptr, ptr %4, align 8, !tbaa !57
  %30 = load ptr, ptr %3, align 8, !tbaa !13
  %31 = getelementptr inbounds nuw %struct.cpio, ptr %30, i32 0, i32 2
  store ptr %29, ptr %31, align 8, !tbaa !54
  call void @llvm.lifetime.end.p0(i64 8, ptr %4) #8
  br label %10, !llvm.loop !59

32:                                               ; preds = %10
  %33 = load ptr, ptr %3, align 8, !tbaa !13
  call void @free(ptr noundef %33) #8
  %34 = load ptr, ptr %2, align 8, !tbaa !9
  %35 = getelementptr inbounds nuw %struct.archive_read, ptr %34, i32 0, i32 13
  %36 = load ptr, ptr %35, align 8, !tbaa !20
  %37 = getelementptr inbounds nuw %struct.archive_format_descriptor, ptr %36, i32 0, i32 0
  store ptr null, ptr %37, align 8, !tbaa !35
  call void @llvm.lifetime.end.p0(i64 8, ptr %3) #8
  ret i32 0
}