; Function Attrs: nounwind uwtable
define internal noundef i32 @archive_read_format_cpio_cleanup(ptr noundef readonly captures(none) %0) #0 {
  %2 = getelementptr inbounds nuw i8, ptr %0, i64 2072
  %3 = load ptr, ptr %2, align 8, !tbaa !13
  %4 = load ptr, ptr %3, align 8, !tbaa !28
  %5 = getelementptr inbounds nuw i8, ptr %4, i64 16
  %6 = load ptr, ptr %5, align 8, !tbaa !48
  %.not9 = icmp eq ptr %6, null
  br i1 %.not9, label %._crit_edge, label %.lr.ph

.lr.ph:                                           ; preds = %1, %.lr.ph
  %7 = phi ptr [ %8, %.lr.ph ], [ %6, %1 ]
  %8 = load ptr, ptr %7, align 8, !tbaa !47
  %9 = getelementptr inbounds nuw i8, ptr %7, i64 40
  %10 = load ptr, ptr %9, align 8, !tbaa !44
  tail call void @free(ptr noundef %10) #12
  %11 = load ptr, ptr %5, align 8, !tbaa !48
  tail call void @free(ptr noundef %11) #12
  store ptr %8, ptr %5, align 8, !tbaa !48
  %.not = icmp eq ptr %8, null
  br i1 %.not, label %._crit_edge, label %.lr.ph, !llvm.loop !54

._crit_edge:                                      ; preds = %.lr.ph, %1
  tail call void @free(ptr noundef nonnull %4) #12
  %12 = load ptr, ptr %2, align 8, !tbaa !13
  store ptr null, ptr %12, align 8, !tbaa !28
  ret i32 0
}